; Function Attrs: nounwind uwtable
define internal fastcc ptr @mi_heap_realloc_zero_aligned_at(ptr noundef %0, ptr noundef %1, i64 noundef %2, i64 noundef %3, i64 noundef %4, i1 noundef zeroext %5) unnamed_addr #0 {
  %7 = icmp ult i64 %3, 9
  br i1 %7, label %8, label %10

8:                                                ; preds = %6
  %9 = tail call ptr @_mi_heap_realloc_zero(ptr noundef %0, ptr noundef %1, i64 noundef %2, i1 noundef zeroext %5) #8
  br label %mi_heap_malloc_zero_aligned_at.exit

10:                                               ; preds = %6
  %11 = icmp eq ptr %1, null
  br i1 %11, label %12, label %37

12:                                               ; preds = %10
  %13 = tail call range(i64 1, 65) i64 @llvm.ctpop.i64(i64 range(i64 1, 0) %3)
  %or.cond.not.i = icmp eq i64 %13, 1
  br i1 %or.cond.not.i, label %14, label %mi_heap_malloc_zero_aligned_at.exit, !prof !3

14:                                               ; preds = %12
  %15 = icmp ult i64 %2, 1025
  %16 = icmp ule i64 %3, %2
  %17 = and i1 %15, %16
  br i1 %17, label %18, label %.thread.i, !prof !4

18:                                               ; preds = %14
  %19 = add nuw nsw i64 %2, 7
  %20 = lshr i64 %19, 3
  %21 = getelementptr inbounds nuw i8, ptr %0, i64 232
  %22 = getelementptr inbounds nuw [129 x ptr], ptr %21, i64 0, i64 %20
  %23 = load ptr, ptr %22, align 8, !tbaa !5
  %24 = getelementptr inbounds nuw i8, ptr %23, i64 16
  %25 = load ptr, ptr %24, align 8, !tbaa !10
  %.not.i = icmp eq ptr %25, null
  br i1 %.not.i, label %.thread.i, label %26, !prof !17

26:                                               ; preds = %18
  %27 = add i64 %3, -1
  %28 = ptrtoint ptr %25 to i64
  %29 = add i64 %4, %28
  %30 = and i64 %29, %27
  %.not36.i = icmp eq i64 %30, 0
  br i1 %.not36.i, label %31, label %.thread.i, !prof !4

31:                                               ; preds = %26
  br i1 %5, label %32, label %34

32:                                               ; preds = %31
  %33 = tail call ptr @_mi_page_malloc_zeroed(ptr noundef nonnull %0, ptr noundef nonnull %23, i64 noundef %2) #8
  br label %mi_heap_malloc_zero_aligned_at.exit

34:                                               ; preds = %31
  %35 = tail call ptr @_mi_page_malloc(ptr noundef nonnull %0, ptr noundef nonnull %23, i64 noundef %2) #8
  br label %mi_heap_malloc_zero_aligned_at.exit

.thread.i:                                        ; preds = %26, %18, %14
  %36 = tail call fastcc ptr @mi_heap_malloc_zero_aligned_at_generic(ptr noundef %0, i64 noundef %2, i64 noundef %3, i64 noundef %4, i1 noundef zeroext %5) #9
  br label %mi_heap_malloc_zero_aligned_at.exit

37:                                               ; preds = %10
  %38 = tail call i64 @mi_usable_size(ptr noundef nonnull %1) #8
  %.not = icmp ugt i64 %2, %38
  br i1 %.not, label %47, label %39

39:                                               ; preds = %37
  %40 = lshr i64 %38, 1
  %41 = sub i64 %38, %40
  %.not50 = icmp ult i64 %2, %41
  br i1 %.not50, label %47, label %42

42:                                               ; preds = %39
  %43 = ptrtoint ptr %1 to i64
  %44 = add i64 %4, %43
  %45 = urem i64 %44, %3
  %46 = icmp eq i64 %45, 0
  br i1 %46, label %mi_heap_malloc_zero_aligned_at.exit, label %47

47:                                               ; preds = %42, %39, %37
  %48 = tail call range(i64 1, 65) i64 @llvm.ctpop.i64(i64 range(i64 1, 0) %3)
  %or.cond.not.i.i = icmp eq i64 %48, 1
  br i1 %or.cond.not.i.i, label %49, label %mi_heap_malloc_zero_aligned_at.exit, !prof !3

49:                                               ; preds = %47
  %50 = icmp ult i64 %2, 1025
  %51 = icmp ule i64 %3, %2
  %52 = and i1 %50, %51
  br i1 %52, label %53, label %.thread.i.i, !prof !4

53:                                               ; preds = %49
  %54 = add nuw nsw i64 %2, 7
  %55 = lshr i64 %54, 3
  %56 = getelementptr inbounds nuw i8, ptr %0, i64 232
  %57 = getelementptr inbounds nuw [129 x ptr], ptr %56, i64 0, i64 %55
  %58 = load ptr, ptr %57, align 8, !tbaa !5
  %59 = getelementptr inbounds nuw i8, ptr %58, i64 16
  %60 = load ptr, ptr %59, align 8, !tbaa !10
  %.not.i.i = icmp eq ptr %60, null
  br i1 %.not.i.i, label %.thread.i.i, label %61, !prof !17

61:                                               ; preds = %53
  %62 = add i64 %3, -1
  %63 = ptrtoint ptr %60 to i64
  %64 = add i64 %4, %63
  %65 = and i64 %64, %62
  %.not36.i.i = icmp eq i64 %65, 0
  br i1 %.not36.i.i, label %66, label %.thread.i.i, !prof !4

66:                                               ; preds = %61
  %67 = tail call ptr @_mi_page_malloc(ptr noundef nonnull %0, ptr noundef nonnull %58, i64 noundef %2) #8
  br label %mi_heap_malloc_aligned_at.exit

.thread.i.i:                                      ; preds = %61, %53, %49
  %68 = tail call fastcc ptr @mi_heap_malloc_zero_aligned_at_generic(ptr noundef %0, i64 noundef %2, i64 noundef %3, i64 noundef %4, i1 noundef zeroext false) #9
  br label %mi_heap_malloc_aligned_at.exit

mi_heap_malloc_aligned_at.exit:                   ; preds = %66, %.thread.i.i
  %.030.i.i = phi ptr [ %68, %.thread.i.i ], [ %67, %66 ]
  %.not51 = icmp eq ptr %.030.i.i, null
  br i1 %.not51, label %mi_heap_malloc_zero_aligned_at.exit, label %69

69:                                               ; preds = %mi_heap_malloc_aligned_at.exit
  %or.cond = and i1 %5, %.not
  br i1 %or.cond, label %70, label %74

70:                                               ; preds = %69
  %71 = tail call i64 @llvm.usub.sat.i64(i64 %38, i64 8)
  %72 = getelementptr inbounds nuw i8, ptr %.030.i.i, i64 %71
  %73 = sub i64 %2, %71
  tail call void @llvm.memset.p0.i64(ptr nonnull align 1 %72, i8 0, i64 %73, i1 false)
  br label %74

74:                                               ; preds = %70, %69
  %75 = tail call i64 @llvm.umin.i64(i64 %2, i64 %38)
  call void @llvm.assume(i1 true) [ "align"(ptr %.030.i.i, i64 8) ]
  call void @llvm.assume(i1 true) [ "align"(ptr %1, i64 8) ]
  tail call void @llvm.memcpy.p0.p0.i64(ptr nonnull align 8 %.030.i.i, ptr nonnull readonly align 8 %1, i64 %75, i1 false)
  tail call void @mi_free(ptr noundef nonnull %1) #8
  br label %mi_heap_malloc_zero_aligned_at.exit

mi_heap_malloc_zero_aligned_at.exit:              ; preds = %47, %.thread.i, %34, %32, %12, %42, %74, %mi_heap_malloc_aligned_at.exit, %8
  %.0 = phi ptr [ %9, %8 ], [ %1, %42 ], [ %.030.i.i, %74 ], [ null, %mi_heap_malloc_aligned_at.exit ], [ %36, %.thread.i ], [ null, %12 ], [ %33, %32 ], [ %35, %34 ], [ null, %47 ]
  ret ptr %.0
}